; Function Attrs: mustprogress uwtable
define void @_ZN10BigInteger8multiplyERKS_S1_(ptr noundef nonnull align 8 dereferenceable(24) %0, ptr noundef nonnull align 8 dereferenceable(24) %1, ptr noundef nonnull align 8 dereferenceable(24) %2) local_unnamed_addr #0 align 2 personality ptr @__gxx_personality_v0 {
  %4 = alloca %class.BigInteger, align 8
  %5 = alloca %class.BigUnsigned, align 8
  %6 = icmp eq ptr %0, %1
  %7 = icmp eq ptr %0, %2
  %or.cond = or i1 %6, %7
  br i1 %or.cond, label %8, label %48

8:                                                ; preds = %3
  call void @llvm.lifetime.start.p0(i64 24, ptr nonnull %4) #11
  store i32 0, ptr %4, align 8, !tbaa !6
  %9 = getelementptr inbounds nuw i8, ptr %4, i64 8
  call void @llvm.memset.p0.i64(ptr noundef nonnull align 8 dereferenceable(16) %9, i8 0, i64 16, i1 false)
  invoke void @_ZN10BigInteger8multiplyERKS_S1_(ptr noundef nonnull align 8 dereferenceable(24) %4, ptr noundef nonnull align 8 dereferenceable(24) %1, ptr noundef nonnull align 8 dereferenceable(24) %2)
          to label %10 unwind label %42

10:                                               ; preds = %8
  %11 = icmp eq ptr %0, %4
  br i1 %11, label %_ZN10BigIntegeraSERKS_.exit, label %12

12:                                               ; preds = %10
  %13 = load i32, ptr %4, align 8, !tbaa !6
  store i32 %13, ptr %0, align 8, !tbaa !6
  %14 = getelementptr inbounds nuw i8, ptr %0, i64 8
  %15 = getelementptr inbounds nuw i8, ptr %4, i64 12
  %16 = load i32, ptr %15, align 4, !tbaa !16
  %17 = getelementptr inbounds nuw i8, ptr %0, i64 12
  store i32 %16, ptr %17, align 4, !tbaa !16
  %18 = load i32, ptr %14, align 8, !tbaa !17
  %19 = icmp ugt i32 %16, %18
  br i1 %19, label %20, label %_ZN15NumberlikeArrayImE8allocateEj.exit.i.i.i

20:                                               ; preds = %12
  %21 = getelementptr inbounds nuw i8, ptr %0, i64 16
  %22 = load ptr, ptr %21, align 8, !tbaa !18
  %23 = icmp eq ptr %22, null
  br i1 %23, label %25, label %24

24:                                               ; preds = %20
  call void @_ZdaPv(ptr noundef nonnull %22) #9
  %.pre.pre.i.i.i = load i32, ptr %17, align 4, !tbaa !16
  br label %25

25:                                               ; preds = %24, %20
  %.pre.i.i.i = phi i32 [ %.pre.pre.i.i.i, %24 ], [ %16, %20 ]
  store i32 %16, ptr %14, align 8, !tbaa !17
  %26 = zext i32 %16 to i64
  %27 = shl nuw nsw i64 %26, 3
  %28 = invoke noalias noundef nonnull ptr @_Znam(i64 noundef %27) #10
          to label %.noexc unwind label %42

.noexc:                                           ; preds = %25
  store ptr %28, ptr %21, align 8, !tbaa !18
  br label %_ZN15NumberlikeArrayImE8allocateEj.exit.i.i.i

_ZN15NumberlikeArrayImE8allocateEj.exit.i.i.i:    ; preds = %.noexc, %12
  %29 = phi i32 [ %16, %12 ], [ %.pre.i.i.i, %.noexc ]
  %.not.i.i.i = icmp eq i32 %29, 0
  br i1 %.not.i.i.i, label %_ZN10BigIntegeraSERKS_.exit, label %.lr.ph.i.i.i

.lr.ph.i.i.i:                                     ; preds = %_ZN15NumberlikeArrayImE8allocateEj.exit.i.i.i
  %30 = getelementptr inbounds nuw i8, ptr %4, i64 16
  %31 = load ptr, ptr %30, align 8, !tbaa !18
  %32 = getelementptr inbounds nuw i8, ptr %0, i64 16
  %33 = load ptr, ptr %32, align 8, !tbaa !18
  %wide.trip.count.i.i.i = zext i32 %29 to i64
  br label %34

34:                                               ; preds = %34, %.lr.ph.i.i.i
  %indvars.iv.i.i.i = phi i64 [ 0, %.lr.ph.i.i.i ], [ %indvars.iv.next.i.i.i, %34 ]
  %35 = getelementptr inbounds nuw i64, ptr %31, i64 %indvars.iv.i.i.i
  %36 = load i64, ptr %35, align 8, !tbaa !19
  %37 = getelementptr inbounds nuw i64, ptr %33, i64 %indvars.iv.i.i.i
  store i64 %36, ptr %37, align 8, !tbaa !19
  %indvars.iv.next.i.i.i = add nuw nsw i64 %indvars.iv.i.i.i, 1
  %exitcond.not.i.i.i = icmp eq i64 %indvars.iv.next.i.i.i, %wide.trip.count.i.i.i
  br i1 %exitcond.not.i.i.i, label %_ZN10BigIntegeraSERKS_.exit, label %34, !llvm.loop !21

_ZN10BigIntegeraSERKS_.exit:                      ; preds = %34, %_ZN15NumberlikeArrayImE8allocateEj.exit.i.i.i, %10
  %38 = getelementptr inbounds nuw i8, ptr %4, i64 16
  %39 = load ptr, ptr %38, align 8, !tbaa !18
  %40 = icmp eq ptr %39, null
  br i1 %40, label %_ZN10BigIntegerD2Ev.exit, label %41

41:                                               ; preds = %_ZN10BigIntegeraSERKS_.exit
  call void @_ZdaPv(ptr noundef nonnull %39) #9
  br label %_ZN10BigIntegerD2Ev.exit

_ZN10BigIntegerD2Ev.exit:                         ; preds = %_ZN10BigIntegeraSERKS_.exit, %41
  call void @llvm.lifetime.end.p0(i64 24, ptr nonnull %4) #11
  br label %97

42:                                               ; preds = %25, %8
  %43 = landingpad { ptr, i32 }
          cleanup
  %44 = getelementptr inbounds nuw i8, ptr %4, i64 16
  %45 = load ptr, ptr %44, align 8, !tbaa !18
  %46 = icmp eq ptr %45, null
  br i1 %46, label %_ZN10BigIntegerD2Ev.exit20, label %47

47:                                               ; preds = %42
  call void @_ZdaPv(ptr noundef nonnull %45) #9
  br label %_ZN10BigIntegerD2Ev.exit20

_ZN10BigIntegerD2Ev.exit20:                       ; preds = %42, %47
  call void @llvm.lifetime.end.p0(i64 24, ptr nonnull %4) #11
  br label %98

48:                                               ; preds = %3
  %49 = load i32, ptr %1, align 8, !tbaa !6
  %50 = icmp eq i32 %49, 0
  br i1 %50, label %54, label %51

51:                                               ; preds = %48
  %52 = load i32, ptr %2, align 8, !tbaa !6
  %53 = icmp eq i32 %52, 0
  br i1 %53, label %54, label %91

54:                                               ; preds = %51, %48
  store i32 0, ptr %0, align 8, !tbaa !6
  call void @llvm.lifetime.start.p0(i64 16, ptr nonnull %5) #11
  call void @_ZN11BigUnsignedC1Ei(ptr noundef nonnull align 8 dereferenceable(16) %5, i32 noundef 0)
  %55 = getelementptr inbounds nuw i8, ptr %0, i64 8
  %56 = icmp eq ptr %55, %5
  br i1 %56, label %_ZN11BigUnsignedaSERKS_.exit, label %57

57:                                               ; preds = %54
  %58 = getelementptr inbounds nuw i8, ptr %5, i64 4
  %59 = load i32, ptr %58, align 4, !tbaa !16
  %60 = getelementptr inbounds nuw i8, ptr %0, i64 12
  store i32 %59, ptr %60, align 4, !tbaa !16
  %61 = load i32, ptr %55, align 8, !tbaa !17
  %62 = icmp ugt i32 %59, %61
  br i1 %62, label %63, label %_ZN15NumberlikeArrayImE8allocateEj.exit.i.i

63:                                               ; preds = %57
  %64 = getelementptr inbounds nuw i8, ptr %0, i64 16
  %65 = load ptr, ptr %64, align 8, !tbaa !18
  %66 = icmp eq ptr %65, null
  br i1 %66, label %68, label %67

67:                                               ; preds = %63
  call void @_ZdaPv(ptr noundef nonnull %65) #9
  %.pre.pre.i.i = load i32, ptr %60, align 4, !tbaa !16
  br label %68

68:                                               ; preds = %67, %63
  %.pre.i.i = phi i32 [ %.pre.pre.i.i, %67 ], [ %59, %63 ]
  store i32 %59, ptr %55, align 8, !tbaa !17
  %69 = zext i32 %59 to i64
  %70 = shl nuw nsw i64 %69, 3
  %71 = invoke noalias noundef nonnull ptr @_Znam(i64 noundef %70) #10
          to label %.noexc21 unwind label %85

.noexc21:                                         ; preds = %68
  store ptr %71, ptr %64, align 8, !tbaa !18
  br label %_ZN15NumberlikeArrayImE8allocateEj.exit.i.i

_ZN15NumberlikeArrayImE8allocateEj.exit.i.i:      ; preds = %.noexc21, %57
  %72 = phi i32 [ %59, %57 ], [ %.pre.i.i, %.noexc21 ]
  %.not.i.i = icmp eq i32 %72, 0
  br i1 %.not.i.i, label %_ZN11BigUnsignedaSERKS_.exit, label %.lr.ph.i.i

.lr.ph.i.i:                                       ; preds = %_ZN15NumberlikeArrayImE8allocateEj.exit.i.i
  %73 = getelementptr inbounds nuw i8, ptr %5, i64 8
  %74 = load ptr, ptr %73, align 8, !tbaa !18
  %75 = getelementptr inbounds nuw i8, ptr %0, i64 16
  %76 = load ptr, ptr %75, align 8, !tbaa !18
  %wide.trip.count.i.i = zext i32 %72 to i64
  br label %77

77:                                               ; preds = %77, %.lr.ph.i.i
  %indvars.iv.i.i = phi i64 [ 0, %.lr.ph.i.i ], [ %indvars.iv.next.i.i, %77 ]
  %78 = getelementptr inbounds nuw i64, ptr %74, i64 %indvars.iv.i.i
  %79 = load i64, ptr %78, align 8, !tbaa !19
  %80 = getelementptr inbounds nuw i64, ptr %76, i64 %indvars.iv.i.i
  store i64 %79, ptr %80, align 8, !tbaa !19
  %indvars.iv.next.i.i = add nuw nsw i64 %indvars.iv.i.i, 1
  %exitcond.not.i.i = icmp eq i64 %indvars.iv.next.i.i, %wide.trip.count.i.i
  br i1 %exitcond.not.i.i, label %_ZN11BigUnsignedaSERKS_.exit, label %77, !llvm.loop !21

_ZN11BigUnsignedaSERKS_.exit:                     ; preds = %77, %_ZN15NumberlikeArrayImE8allocateEj.exit.i.i, %54
  %81 = getelementptr inbounds nuw i8, ptr %5, i64 8
  %82 = load ptr, ptr %81, align 8, !tbaa !18
  %83 = icmp eq ptr %82, null
  br i1 %83, label %_ZN15NumberlikeArrayImED2Ev.exit, label %84

84:                                               ; preds = %_ZN11BigUnsignedaSERKS_.exit
  call void @_ZdaPv(ptr noundef nonnull %82) #9
  br label %_ZN15NumberlikeArrayImED2Ev.exit

_ZN15NumberlikeArrayImED2Ev.exit:                 ; preds = %_ZN11BigUnsignedaSERKS_.exit, %84
  call void @llvm.lifetime.end.p0(i64 16, ptr nonnull %5) #11
  br label %97

85:                                               ; preds = %68
  %86 = landingpad { ptr, i32 }
          cleanup
  %87 = getelementptr inbounds nuw i8, ptr %5, i64 8
  %88 = load ptr, ptr %87, align 8, !tbaa !18
  %89 = icmp eq ptr %88, null
  br i1 %89, label %_ZN15NumberlikeArrayImED2Ev.exit22, label %90

90:                                               ; preds = %85
  call void @_ZdaPv(ptr noundef nonnull %88) #9
  br label %_ZN15NumberlikeArrayImED2Ev.exit22

_ZN15NumberlikeArrayImED2Ev.exit22:               ; preds = %85, %90
  call void @llvm.lifetime.end.p0(i64 16, ptr nonnull %5) #11
  br label %98

91:                                               ; preds = %51
  %92 = icmp eq i32 %49, %52
  %93 = select i1 %92, i32 1, i32 -1
  store i32 %93, ptr %0, align 8, !tbaa !6
  %94 = getelementptr inbounds nuw i8, ptr %0, i64 8
  %95 = getelementptr inbounds nuw i8, ptr %1, i64 8
  %96 = getelementptr inbounds nuw i8, ptr %2, i64 8
  tail call void @_ZN11BigUnsigned8multiplyERKS_S1_(ptr noundef nonnull align 8 dereferenceable(16) %94, ptr noundef nonnull align 8 dereferenceable(16) %95, ptr noundef nonnull align 8 dereferenceable(16) %96)
  br label %97

97:                                               ; preds = %91, %_ZN15NumberlikeArrayImED2Ev.exit, %_ZN10BigIntegerD2Ev.exit
  ret void

98:                                               ; preds = %_ZN15NumberlikeArrayImED2Ev.exit22, %_ZN10BigIntegerD2Ev.exit20
  %.pn = phi { ptr, i32 } [ %43, %_ZN10BigIntegerD2Ev.exit20 ], [ %86, %_ZN15NumberlikeArrayImED2Ev.exit22 ]
  resume { ptr, i32 } %.pn
}